#include <math.h>
#include <stdio.h>
#include <stdlib.h>
#include <string.h>

main()
{
int m=3,i,n,a,b;
scanf("%d",&n);
while(m<=n/2)
{for(i=2;i<=m-1;i++)
if(m%i==0)break;
if(i>=m)
{a=n-m;
for(i=2;i<=a-1;i++)
if(a%i==0)break;
if(i==a)
printf("%d %d\n",m,a);}
m=m+2;
}
}

